#include <math.h>
#include <stdio.h>
#include <stdlib.h>
#include <string.h>

int main() 
{
 int n, i,k,j;
 double  b[10000],c,d[10000],m;
 double sum[100];
    scanf("%d",&n);
 for(i=0;i<n;i++)
 {m=0.0;
 c=0.0;
  scanf("%d",&k);
  for(j=0;j<k;j++)
  {
    scanf("%lf",&b[j]);
  }
  for(j=0;j<k;j++)
  {
 
       
        c=c+b[j];
  }
  for(j=0;j<k;j++)
  {
     d[j]=b[j]-c/k;
     
     m =m+d[j]*d[j];  
  }
  
    sum[i]=sqrt(m/k);
  
  
 }
 for(i=0;i<n;i++)
 {
  
  printf("%.5lf\n",sum[i]);
 }
 return 0;
}
 
