; ModuleID = '38/429.c'
source_filename = "38/429.c"
target datalayout = "e-m:e-p270:32:32-p271:32:32-p272:64:64-i64:64-f80:128-n8:16:32:64-S128"
target triple = "x86_64-pc-linux-gnu"

@.str = private unnamed_addr constant [3 x i8] c"%d\00", align 1
@.str.1 = private unnamed_addr constant [4 x i8] c"%lf\00", align 1
@.str.2 = private unnamed_addr constant [7 x i8] c"%.5lf\0A\00", align 1

; Function Attrs: noinline nounwind uwtable
define dso_local i32 @main() #0 {
  %1 = alloca i32, align 4
  %2 = alloca i32, align 4
  %3 = alloca i32, align 4
  %4 = alloca i32, align 4
  %5 = alloca i32, align 4
  %6 = alloca [10000 x double], align 16
  %7 = alloca double, align 8
  %8 = alloca [10000 x double], align 16
  %9 = alloca double, align 8
  %10 = alloca [100 x double], align 16
  store i32 0, i32* %1, align 4
  %11 = call i32 (i8*, ...) @__isoc99_scanf(i8* getelementptr inbounds ([3 x i8], [3 x i8]* @.str, i64 0, i64 0), i32* %2)
  store i32 0, i32* %3, align 4
  br label %12

12:                                               ; preds = %86, %0
  %13 = load i32, i32* %3, align 4
  %14 = load i32, i32* %2, align 4
  %15 = icmp slt i32 %13, %14
  br i1 %15, label %16, label %89

16:                                               ; preds = %12
  store double 0.000000e+00, double* %9, align 8
  store double 0.000000e+00, double* %7, align 8
  %17 = call i32 (i8*, ...) @__isoc99_scanf(i8* getelementptr inbounds ([3 x i8], [3 x i8]* @.str, i64 0, i64 0), i32* %4)
  store i32 0, i32* %5, align 4
  br label %18

18:                                               ; preds = %27, %16
  %19 = load i32, i32* %5, align 4
  %20 = load i32, i32* %4, align 4
  %21 = icmp slt i32 %19, %20
  br i1 %21, label %22, label %30

22:                                               ; preds = %18
  %23 = load i32, i32* %5, align 4
  %24 = sext i32 %23 to i64
  %25 = getelementptr inbounds [10000 x double], [10000 x double]* %6, i64 0, i64 %24
  %26 = call i32 (i8*, ...) @__isoc99_scanf(i8* getelementptr inbounds ([4 x i8], [4 x i8]* @.str.1, i64 0, i64 0), double* %25)
  br label %27

27:                                               ; preds = %22
  %28 = load i32, i32* %5, align 4
  %29 = add nsw i32 %28, 1
  store i32 %29, i32* %5, align 4
  br label %18

30:                                               ; preds = %18
  store i32 0, i32* %5, align 4
  br label %31

31:                                               ; preds = %42, %30
  %32 = load i32, i32* %5, align 4
  %33 = load i32, i32* %4, align 4
  %34 = icmp slt i32 %32, %33
  br i1 %34, label %35, label %45

35:                                               ; preds = %31
  %36 = load double, double* %7, align 8
  %37 = load i32, i32* %5, align 4
  %38 = sext i32 %37 to i64
  %39 = getelementptr inbounds [10000 x double], [10000 x double]* %6, i64 0, i64 %38
  %40 = load double, double* %39, align 8
  %41 = fadd double %36, %40
  store double %41, double* %7, align 8
  br label %42

42:                                               ; preds = %35
  %43 = load i32, i32* %5, align 4
  %44 = add nsw i32 %43, 1
  store i32 %44, i32* %5, align 4
  br label %31

45:                                               ; preds = %31
  store i32 0, i32* %5, align 4
  br label %46

46:                                               ; preds = %74, %45
  %47 = load i32, i32* %5, align 4
  %48 = load i32, i32* %4, align 4
  %49 = icmp slt i32 %47, %48
  br i1 %49, label %50, label %77

50:                                               ; preds = %46
  %51 = load i32, i32* %5, align 4
  %52 = sext i32 %51 to i64
  %53 = getelementptr inbounds [10000 x double], [10000 x double]* %6, i64 0, i64 %52
  %54 = load double, double* %53, align 8
  %55 = load double, double* %7, align 8
  %56 = load i32, i32* %4, align 4
  %57 = sitofp i32 %56 to double
  %58 = fdiv double %55, %57
  %59 = fsub double %54, %58
  %60 = load i32, i32* %5, align 4
  %61 = sext i32 %60 to i64
  %62 = getelementptr inbounds [10000 x double], [10000 x double]* %8, i64 0, i64 %61
  store double %59, double* %62, align 8
  %63 = load double, double* %9, align 8
  %64 = load i32, i32* %5, align 4
  %65 = sext i32 %64 to i64
  %66 = getelementptr inbounds [10000 x double], [10000 x double]* %8, i64 0, i64 %65
  %67 = load double, double* %66, align 8
  %68 = load i32, i32* %5, align 4
  %69 = sext i32 %68 to i64
  %70 = getelementptr inbounds [10000 x double], [10000 x double]* %8, i64 0, i64 %69
  %71 = load double, double* %70, align 8
  %72 = fmul double %67, %71
  %73 = fadd double %63, %72
  store double %73, double* %9, align 8
  br label %74

74:                                               ; preds = %50
  %75 = load i32, i32* %5, align 4
  %76 = add nsw i32 %75, 1
  store i32 %76, i32* %5, align 4
  br label %46

77:                                               ; preds = %46
  %78 = load double, double* %9, align 8
  %79 = load i32, i32* %4, align 4
  %80 = sitofp i32 %79 to double
  %81 = fdiv double %78, %80
  %82 = call double @sqrt(double %81) #3
  %83 = load i32, i32* %3, align 4
  %84 = sext i32 %83 to i64
  %85 = getelementptr inbounds [100 x double], [100 x double]* %10, i64 0, i64 %84
  store double %82, double* %85, align 8
  br label %86

86:                                               ; preds = %77
  %87 = load i32, i32* %3, align 4
  %88 = add nsw i32 %87, 1
  store i32 %88, i32* %3, align 4
  br label %12

89:                                               ; preds = %12
  store i32 0, i32* %3, align 4
  br label %90

90:                                               ; preds = %100, %89
  %91 = load i32, i32* %3, align 4
  %92 = load i32, i32* %2, align 4
  %93 = icmp slt i32 %91, %92
  br i1 %93, label %94, label %103

94:                                               ; preds = %90
  %95 = load i32, i32* %3, align 4
  %96 = sext i32 %95 to i64
  %97 = getelementptr inbounds [100 x double], [100 x double]* %10, i64 0, i64 %96
  %98 = load double, double* %97, align 8
  %99 = call i32 (i8*, ...) @printf(i8* getelementptr inbounds ([7 x i8], [7 x i8]* @.str.2, i64 0, i64 0), double %98)
  br label %100

100:                                              ; preds = %94
  %101 = load i32, i32* %3, align 4
  %102 = add nsw i32 %101, 1
  store i32 %102, i32* %3, align 4
  br label %90

103:                                              ; preds = %90
  ret i32 0
}

declare dso_local i32 @__isoc99_scanf(i8*, ...) #1

; Function Attrs: nounwind
declare dso_local double @sqrt(double) #2

declare dso_local i32 @printf(i8*, ...) #1


!llvm.module.flags = !{!0}
!llvm.ident = !{!1}

!0 = !{i32 1, !"wchar_size", i32 4}
!1 = !{!"clang version 10.0.0-4ubuntu1 "}
